target datalayout = "e-m:e-p270:32:32-p271:32:32-p272:64:64-i64:64-i128:128-f80:128-n8:16:32:64-S128"
target triple = "x86_64-pc-linux-gnu"

%"struct.pxrInternal_v0_24__pxrReserved__::TsTest_SplineData::Knot" = type <{ double, i32, [4 x i8], double, i8, [7 x i8], double, double, double, double, double, i8, i8, [6 x i8] }>

; Function Attrs: mustprogress nounwind uwtable
define void @_ZN32pxrInternal_v0_24__pxrReserved__17TsTest_SplineData4KnotC2Ev(ptr noundef nonnull align 8 dereferenceable(74) %0) unnamed_addr #2 align 2 {
  %2 = alloca ptr, align 8
  store ptr %0, ptr %2, align 8
  %3 = load ptr, ptr %2, align 8
  %4 = getelementptr inbounds nuw %"struct.pxrInternal_v0_24__pxrReserved__::TsTest_SplineData::Knot", ptr %3, i32 0, i32 0
  store double 0.000000e+00, ptr %4, align 8
  %5 = getelementptr inbounds nuw %"struct.pxrInternal_v0_24__pxrReserved__::TsTest_SplineData::Knot", ptr %3, i32 0, i32 1
  store i32 0, ptr %5, align 8
  %6 = getelementptr inbounds nuw %"struct.pxrInternal_v0_24__pxrReserved__::TsTest_SplineData::Knot", ptr %3, i32 0, i32 3
  store double 0.000000e+00, ptr %6, align 8
  %7 = getelementptr inbounds nuw %"struct.pxrInternal_v0_24__pxrReserved__::TsTest_SplineData::Knot", ptr %3, i32 0, i32 4
  store i8 0, ptr %7, align 8
  %8 = getelementptr inbounds nuw %"struct.pxrInternal_v0_24__pxrReserved__::TsTest_SplineData::Knot", ptr %3, i32 0, i32 6
  store double 0.000000e+00, ptr %8, align 8
  %9 = getelementptr inbounds nuw %"struct.pxrInternal_v0_24__pxrReserved__::TsTest_SplineData::Knot", ptr %3, i32 0, i32 7
  store double 0.000000e+00, ptr %9, align 8
  %10 = getelementptr inbounds nuw %"struct.pxrInternal_v0_24__pxrReserved__::TsTest_SplineData::Knot", ptr %3, i32 0, i32 8
  store double 0.000000e+00, ptr %10, align 8
  %11 = getelementptr inbounds nuw %"struct.pxrInternal_v0_24__pxrReserved__::TsTest_SplineData::Knot", ptr %3, i32 0, i32 9
  store double 0.000000e+00, ptr %11, align 8
  %12 = getelementptr inbounds nuw %"struct.pxrInternal_v0_24__pxrReserved__::TsTest_SplineData::Knot", ptr %3, i32 0, i32 10
  store double 0.000000e+00, ptr %12, align 8
  %13 = getelementptr inbounds nuw %"struct.pxrInternal_v0_24__pxrReserved__::TsTest_SplineData::Knot", ptr %3, i32 0, i32 11
  store i8 0, ptr %13, align 8
  %14 = getelementptr inbounds nuw %"struct.pxrInternal_v0_24__pxrReserved__::TsTest_SplineData::Knot", ptr %3, i32 0, i32 12
  store i8 0, ptr %14, align 1
  ret void
}